target datalayout = "e-m:e-p270:32:32-p271:32:32-p272:64:64-i64:64-i128:128-f80:128-n8:16:32:64-S128"
target triple = "x86_64-pc-linux-gnu"

%struct._packet_info = type { ptr, ptr, i32, i32, %struct.nstime_t, %struct.nstime_t, %struct.nstime_t, i8, ptr, ptr, ptr, ptr, %struct._address, %struct._address, %struct._address, %struct._address, %struct._address, %struct._address, i32, ptr, i8, [3 x i8], %struct.anon, i32, i32, i32, i32, ptr, i8, ptr, ptr, i16, i16, i32, i32, i16, i32, i32, ptr, ptr, ptr, i8, i8, i16, i16, i16, i32, i16, i16, ptr, ptr, ptr, ptr, ptr, i32, i32 }
%struct.nstime_t = type { i64, i32 }
%struct._address = type { i32, i32, ptr, ptr }
%struct.anon = type { i8, [3 x i8] }

@hf_h263_gbsc = internal global i32 0, align 4
@hf_h263_GN = internal global i32 0, align 4
@hf_h263_data = internal global i32 0, align 4
@ett_h263_payload = internal global i32 0, align 4
@proto_h263_data = internal global i32 0, align 4
@.str.92 = private unnamed_addr constant [14 x i8] c"H263 payload \00", align 1
@.str.93 = private unnamed_addr constant [7 x i8] c"(PSC) \00", align 1
@.str.94 = private unnamed_addr constant [8 x i8] c"(GBSC) \00", align 1

; Function Attrs: null_pointer_is_valid sspstrong uwtable
define hidden i32 @dissect_h263_group_of_blocks_layer(ptr noundef %0, ptr noundef %1, i32 noundef %2, i1 noundef zeroext %3) #0 {
  %5 = alloca ptr, align 8
  %6 = alloca ptr, align 8
  %7 = alloca i32, align 4
  %8 = alloca i8, align 1
  %9 = alloca i32, align 4
  store ptr %0, ptr %5, align 8
  store ptr %1, ptr %6, align 8
  store i32 %2, ptr %7, align 4
  %10 = zext i1 %3 to i8
  store i8 %10, ptr %8, align 1
  call void @llvm.lifetime.start.p0(i64 4, ptr %9) #3
  %11 = load i32, ptr %7, align 4
  %12 = shl i32 %11, 3
  store i32 %12, ptr %9, align 4
  %13 = load i8, ptr %8, align 1, !range !6, !noundef !7
  %14 = trunc i8 %13 to i1
  br i1 %14, label %15, label %23

15:                                               ; preds = %4
  %16 = load ptr, ptr %6, align 8
  %17 = load i32, ptr @hf_h263_gbsc, align 4
  %18 = load ptr, ptr %5, align 8
  %19 = load i32, ptr %9, align 4
  %20 = call ptr @proto_tree_add_bits_item(ptr noundef %16, i32 noundef %17, ptr noundef %18, i32 noundef %19, i32 noundef 1, i32 noundef 0)
  %21 = load i32, ptr %9, align 4
  %22 = add i32 %21, 1
  store i32 %22, ptr %9, align 4
  br label %31

23:                                               ; preds = %4
  %24 = load ptr, ptr %6, align 8
  %25 = load i32, ptr @hf_h263_gbsc, align 4
  %26 = load ptr, ptr %5, align 8
  %27 = load i32, ptr %9, align 4
  %28 = call ptr @proto_tree_add_bits_item(ptr noundef %24, i32 noundef %25, ptr noundef %26, i32 noundef %27, i32 noundef 17, i32 noundef 0)
  %29 = load i32, ptr %9, align 4
  %30 = add i32 %29, 17
  store i32 %30, ptr %9, align 4
  br label %31

31:                                               ; preds = %23, %15
  %32 = load ptr, ptr %6, align 8
  %33 = load i32, ptr @hf_h263_GN, align 4
  %34 = load ptr, ptr %5, align 8
  %35 = load i32, ptr %9, align 4
  %36 = call ptr @proto_tree_add_bits_item(ptr noundef %32, i32 noundef %33, ptr noundef %34, i32 noundef %35, i32 noundef 5, i32 noundef 0)
  %37 = load i32, ptr %9, align 4
  %38 = add i32 %37, 5
  store i32 %38, ptr %9, align 4
  %39 = load i32, ptr %9, align 4
  %40 = lshr i32 %39, 3
  call void @llvm.lifetime.end.p0(i64 4, ptr %9) #3
  ret i32 %40
}

; Function Attrs: null_pointer_is_valid sspstrong uwtable
define internal i32 @dissect_h263_data(ptr noundef %0, ptr noundef %1, ptr noundef %2, ptr noundef %3) #0 {
  %5 = alloca i32, align 4
  %6 = alloca ptr, align 8
  %7 = alloca ptr, align 8
  %8 = alloca ptr, align 8
  %9 = alloca ptr, align 8
  %10 = alloca i32, align 4
  %11 = alloca ptr, align 8
  %12 = alloca ptr, align 8
  %13 = alloca i32, align 4
  %14 = alloca i8, align 1
  %15 = alloca i32, align 4
  %16 = alloca i32, align 4
  store ptr %0, ptr %6, align 8
  store ptr %1, ptr %7, align 8
  store ptr %2, ptr %8, align 8
  store ptr %3, ptr %9, align 8
  call void @llvm.lifetime.start.p0(i64 4, ptr %10) #3
  store i32 0, ptr %10, align 4
  call void @llvm.lifetime.start.p0(i64 8, ptr %11) #3
  store ptr null, ptr %11, align 8
  call void @llvm.lifetime.start.p0(i64 8, ptr %12) #3
  store ptr null, ptr %12, align 8
  call void @llvm.lifetime.start.p0(i64 4, ptr %13) #3
  call void @llvm.lifetime.start.p0(i64 1, ptr %14) #3
  call void @llvm.lifetime.start.p0(i64 4, ptr %15) #3
  %17 = load ptr, ptr %7, align 8
  %18 = getelementptr inbounds nuw %struct._packet_info, ptr %17, i32 0, i32 1
  %19 = load ptr, ptr %18, align 8
  call void @col_append_str(ptr noundef %19, i32 noundef 25, ptr noundef @.str.92)
  %20 = load ptr, ptr %8, align 8
  %21 = load i32, ptr @proto_h263_data, align 4
  %22 = load ptr, ptr %6, align 8
  %23 = load i32, ptr %10, align 4
  %24 = call ptr @proto_tree_add_item(ptr noundef %20, i32 noundef %21, ptr noundef %22, i32 noundef %23, i32 noundef -1, i32 noundef 0)
  store ptr %24, ptr %11, align 8
  %25 = load ptr, ptr %11, align 8
  %26 = load i32, ptr @ett_h263_payload, align 4
  %27 = call ptr @proto_item_add_subtree(ptr noundef %25, i32 noundef %26)
  store ptr %27, ptr %12, align 8
  %28 = load ptr, ptr %6, align 8
  %29 = call i32 @tvb_reported_length_remaining(ptr noundef %28, i32 noundef 0)
  store i32 %29, ptr %15, align 4
  %30 = load i32, ptr %15, align 4
  %31 = icmp slt i32 %30, 4
  br i1 %31, label %32, label %44

32:                                               ; preds = %4
  %33 = load ptr, ptr %8, align 8
  %34 = icmp ne ptr %33, null
  br i1 %34, label %35, label %41

35:                                               ; preds = %32
  %36 = load ptr, ptr %12, align 8
  %37 = load i32, ptr @hf_h263_data, align 4
  %38 = load ptr, ptr %6, align 8
  %39 = load i32, ptr %10, align 4
  %40 = call ptr @proto_tree_add_item(ptr noundef %36, i32 noundef %37, ptr noundef %38, i32 noundef %39, i32 noundef -1, i32 noundef 0)
  br label %41

41:                                               ; preds = %35, %32
  %42 = load ptr, ptr %6, align 8
  %43 = call i32 @tvb_captured_length(ptr noundef %42)
  store i32 %43, ptr %5, align 4
  store i32 1, ptr %16, align 4
  br label %99

44:                                               ; preds = %4
  %45 = load ptr, ptr %6, align 8
  %46 = load i32, ptr %10, align 4
  %47 = call i32 @tvb_get_ntohl(ptr noundef %45, i32 noundef %46)
  store i32 %47, ptr %13, align 4
  %48 = load i32, ptr %13, align 4
  %49 = and i32 %48, -32768
  %50 = icmp eq i32 %49, 32768
  br i1 %50, label %51, label %87

51:                                               ; preds = %44
  %52 = load ptr, ptr %6, align 8
  %53 = load i32, ptr %10, align 4
  %54 = add i32 %53, 2
  %55 = call zeroext i8 @tvb_get_uint8(ptr noundef %52, i32 noundef %54)
  %56 = zext i8 %55 to i32
  %57 = and i32 %56, 254
  %58 = trunc i32 %57 to i8
  store i8 %58, ptr %14, align 1
  %59 = load i8, ptr %14, align 1
  %60 = zext i8 %59 to i32
  %61 = and i32 %60, 128
  %62 = icmp ne i32 %61, 0
  br i1 %62, label %63, label %85

63:                                               ; preds = %51
  %64 = load i8, ptr %14, align 1
  %65 = zext i8 %64 to i32
  switch i32 %65, label %76 [
    i32 248, label %84
    i32 128, label %66
    i32 130, label %66
    i32 252, label %75
    i32 254, label %75
  ]

66:                                               ; preds = %63, %63
  %67 = load ptr, ptr %7, align 8
  %68 = getelementptr inbounds nuw %struct._packet_info, ptr %67, i32 0, i32 1
  %69 = load ptr, ptr %68, align 8
  call void @col_append_str(ptr noundef %69, i32 noundef 25, ptr noundef @.str.93)
  %70 = load ptr, ptr %6, align 8
  %71 = load ptr, ptr %7, align 8
  %72 = load ptr, ptr %12, align 8
  %73 = load i32, ptr %10, align 4
  %74 = call i32 @dissect_h263_picture_layer(ptr noundef %70, ptr noundef %71, ptr noundef %72, i32 noundef %73, i32 noundef -1, i1 noundef zeroext false)
  store i32 %74, ptr %10, align 4
  br label %84

75:                                               ; preds = %63, %63
  br label %76

76:                                               ; preds = %63, %75
  %77 = load ptr, ptr %7, align 8
  %78 = getelementptr inbounds nuw %struct._packet_info, ptr %77, i32 0, i32 1
  %79 = load ptr, ptr %78, align 8
  call void @col_append_str(ptr noundef %79, i32 noundef 25, ptr noundef @.str.94)
  %80 = load ptr, ptr %6, align 8
  %81 = load ptr, ptr %12, align 8
  %82 = load i32, ptr %10, align 4
  %83 = call i32 @dissect_h263_group_of_blocks_layer(ptr noundef %80, ptr noundef %81, i32 noundef %82, i1 noundef zeroext false)
  store i32 %83, ptr %10, align 4
  br label %84

84:                                               ; preds = %76, %66, %63
  br label %86

85:                                               ; preds = %51
  br label %86

86:                                               ; preds = %85, %84
  br label %87

87:                                               ; preds = %86, %44
  %88 = load ptr, ptr %8, align 8
  %89 = icmp ne ptr %88, null
  br i1 %89, label %90, label %96

90:                                               ; preds = %87
  %91 = load ptr, ptr %12, align 8
  %92 = load i32, ptr @hf_h263_data, align 4
  %93 = load ptr, ptr %6, align 8
  %94 = load i32, ptr %10, align 4
  %95 = call ptr @proto_tree_add_item(ptr noundef %91, i32 noundef %92, ptr noundef %93, i32 noundef %94, i32 noundef -1, i32 noundef 0)
  br label %96

96:                                               ; preds = %90, %87
  %97 = load ptr, ptr %6, align 8
  %98 = call i32 @tvb_captured_length(ptr noundef %97)
  store i32 %98, ptr %5, align 4
  store i32 1, ptr %16, align 4
  br label %99

99:                                               ; preds = %96, %41
  call void @llvm.lifetime.end.p0(i64 4, ptr %15) #3
  call void @llvm.lifetime.end.p0(i64 1, ptr %14) #3
  call void @llvm.lifetime.end.p0(i64 4, ptr %13) #3
  call void @llvm.lifetime.end.p0(i64 8, ptr %12) #3
  call void @llvm.lifetime.end.p0(i64 8, ptr %11) #3
  call void @llvm.lifetime.end.p0(i64 4, ptr %10) #3
  %100 = load i32, ptr %5, align 4
  ret i32 %100
}