; Function Attrs: null_pointer_is_valid sspstrong uwtable
define internal i32 @dissect_h263_data(ptr noundef %0, ptr noundef readonly captures(none) %1, ptr noundef %2, ptr readnone captures(none) %3) #0 {
  %5 = getelementptr inbounds nuw i8, ptr %1, i64 8
  %6 = load ptr, ptr %5, align 8
  tail call void @col_append_str(ptr noundef %6, i32 noundef 25, ptr noundef nonnull @.str.92)
  %7 = load i32, ptr @proto_h263_data, align 4
  %8 = tail call ptr @proto_tree_add_item(ptr noundef %2, i32 noundef %7, ptr noundef %0, i32 noundef 0, i32 noundef -1, i32 noundef 0)
  %9 = load i32, ptr @ett_h263_payload, align 4
  %10 = tail call ptr @proto_item_add_subtree(ptr noundef %8, i32 noundef %9)
  %11 = tail call i32 @tvb_reported_length_remaining(ptr noundef %0, i32 noundef 0)
  %12 = icmp slt i32 %11, 4
  br i1 %12, label %13, label %14

13:                                               ; preds = %4
  %.not35 = icmp eq ptr %2, null
  br i1 %.not35, label %34, label %.sink.split

14:                                               ; preds = %4
  %15 = tail call i32 @tvb_get_ntohl(ptr noundef %0, i32 noundef 0)
  %16 = and i32 %15, -32768
  %17 = icmp eq i32 %16, 32768
  br i1 %17, label %18, label %31

18:                                               ; preds = %14
  %19 = tail call zeroext i8 @tvb_get_uint8(ptr noundef %0, i32 noundef 2)
  %.not = icmp sgt i8 %19, -1
  br i1 %.not, label %31, label %20

20:                                               ; preds = %18
  %21 = and i8 %19, -2
  switch i8 %21, label %25 [
    i8 -8, label %31
    i8 -128, label %22
    i8 -126, label %22
  ]

22:                                               ; preds = %20, %20
  %23 = load ptr, ptr %5, align 8
  tail call void @col_append_str(ptr noundef %23, i32 noundef 25, ptr noundef nonnull @.str.93)
  %24 = tail call i32 @dissect_h263_picture_layer(ptr noundef %0, ptr noundef %1, ptr noundef %10, i32 noundef 0, i32 poison, i1 noundef zeroext false)
  br label %31

25:                                               ; preds = %20
  %26 = load ptr, ptr %5, align 8
  tail call void @col_append_str(ptr noundef %26, i32 noundef 25, ptr noundef nonnull @.str.94)
  %27 = load i32, ptr @hf_h263_gbsc, align 4
  %28 = tail call ptr @proto_tree_add_bits_item(ptr noundef %10, i32 noundef %27, ptr noundef %0, i32 noundef 0, i32 noundef 17, i32 noundef 0)
  %29 = load i32, ptr @hf_h263_GN, align 4
  %30 = tail call ptr @proto_tree_add_bits_item(ptr noundef %10, i32 noundef %29, ptr noundef %0, i32 noundef 17, i32 noundef 5, i32 noundef 0)
  br label %31

31:                                               ; preds = %25, %22, %20, %18, %14
  %.033 = phi i32 [ 2, %25 ], [ %24, %22 ], [ 0, %20 ], [ 0, %18 ], [ 0, %14 ]
  %.not34 = icmp eq ptr %2, null
  br i1 %.not34, label %34, label %.sink.split

.sink.split:                                      ; preds = %31, %13
  %.033.sink = phi i32 [ 0, %13 ], [ %.033, %31 ]
  %32 = load i32, ptr @hf_h263_data, align 4
  %33 = tail call ptr @proto_tree_add_item(ptr noundef %10, i32 noundef %32, ptr noundef %0, i32 noundef %.033.sink, i32 noundef -1, i32 noundef 0)
  br label %34

34:                                               ; preds = %.sink.split, %31, %13
  %35 = tail call i32 @tvb_captured_length(ptr noundef %0)
  ret i32 %35
}